; Function Attrs: nounwind uwtable
define hidden ptr @X509V3_EXT_get_nid(i32 noundef %0) local_unnamed_addr #0 {
  %2 = alloca %struct.v3_ext_method, align 8
  %3 = alloca i64, align 8
  call void @llvm.lifetime.start.p0(i64 104, ptr nonnull %2) #10
  call void @llvm.lifetime.start.p0(i64 8, ptr nonnull %3) #10
  %4 = icmp slt i32 %0, 0
  br i1 %4, label %bsearch.exit, label %5

5:                                                ; preds = %1
  store i32 %0, ptr %2, align 8, !tbaa !17
  br label %.lr.ph.i

.lr.ph.i:                                         ; preds = %16, %5
  %.01621.i = phi i64 [ %.1.i, %16 ], [ 0, %5 ]
  %.01720.i = phi i64 [ %.118.i, %16 ], [ 32, %5 ]
  %6 = add i64 %.01720.i, %.01621.i
  %7 = lshr i64 %6, 1
  %8 = shl i64 %7, 3
  %9 = getelementptr inbounds nuw i8, ptr @standard_exts, i64 %8
  %10 = load ptr, ptr %9, align 8, !tbaa !15
  %11 = load i32, ptr %10, align 8, !tbaa !17
  %12 = icmp slt i32 %0, %11
  br i1 %12, label %16, label %13

13:                                               ; preds = %.lr.ph.i
  %.not.i = icmp eq i32 %0, %11
  br i1 %.not.i, label %bsearch.exit, label %14

14:                                               ; preds = %13
  %15 = add nuw i64 %7, 1
  br label %16

16:                                               ; preds = %14, %.lr.ph.i
  %.118.i = phi i64 [ %.01720.i, %14 ], [ %7, %.lr.ph.i ]
  %.1.i = phi i64 [ %15, %14 ], [ %.01621.i, %.lr.ph.i ]
  %17 = icmp ult i64 %.1.i, %.118.i
  br i1 %17, label %.lr.ph.i, label %18, !llvm.loop !18

18:                                               ; preds = %16
  %19 = load ptr, ptr @ext_list, align 8, !tbaa !6
  %.not7 = icmp eq ptr %19, null
  br i1 %.not7, label %bsearch.exit, label %20

20:                                               ; preds = %18
  %21 = call i32 @sk_find(ptr noundef nonnull %19, ptr noundef nonnull %3, ptr noundef nonnull %2) #10
  %.not8 = icmp eq i32 %21, 0
  br i1 %.not8, label %bsearch.exit, label %22

22:                                               ; preds = %20
  %23 = load ptr, ptr @ext_list, align 8, !tbaa !6
  %24 = load i64, ptr %3, align 8, !tbaa !20
  %25 = call ptr @sk_value(ptr noundef %23, i64 noundef %24) #10
  br label %bsearch.exit

bsearch.exit:                                     ; preds = %13, %20, %18, %1, %22
  %.0 = phi ptr [ %25, %22 ], [ null, %1 ], [ null, %18 ], [ null, %20 ], [ %10, %13 ]
  call void @llvm.lifetime.end.p0(i64 8, ptr nonnull %3) #10
  call void @llvm.lifetime.end.p0(i64 104, ptr nonnull %2) #10
  ret ptr %.0
}